target datalayout = "e-m:e-p270:32:32-p271:32:32-p272:64:64-i64:64-i128:128-f80:128-n8:16:32:64-S128"
target triple = "x86_64-pc-linux-gnu"

@hf_lcp_opt_maximum = internal global i32 0, align 4
@ett_lcp_self_desc_pad_opt = internal global i32 0, align 4
@proto_lcp_option_self_desc_pad = internal global i32 0, align 4
@.str.1006 = private unnamed_addr constant [1 x i8] zeroinitializer, align 1
@.str.1007 = private unnamed_addr constant [2 x i8] c"s\00", align 1
@.str.1328 = private unnamed_addr constant [13 x i8] c": %u octet%s\00", align 1
@.str.1329 = private unnamed_addr constant [11 x i8] c" [invalid]\00", align 1

; Function Attrs: null_pointer_is_valid sspstrong uwtable
define internal i32 @dissect_lcp_self_describing_pad_opt(ptr noundef %0, ptr noundef %1, ptr noundef %2, ptr noundef %3) #1 {
  %5 = alloca i32, align 4
  %6 = alloca ptr, align 8
  %7 = alloca ptr, align 8
  %8 = alloca ptr, align 8
  %9 = alloca ptr, align 8
  %10 = alloca ptr, align 8
  %11 = alloca ptr, align 8
  %12 = alloca ptr, align 8
  %13 = alloca i32, align 4
  %14 = alloca i32, align 4
  %15 = alloca i32, align 4
  store ptr %0, ptr %6, align 8
  store ptr %1, ptr %7, align 8
  store ptr %2, ptr %8, align 8
  store ptr %3, ptr %9, align 8
  call void @llvm.lifetime.start.p0(i64 8, ptr %10) #6
  call void @llvm.lifetime.start.p0(i64 8, ptr %11) #6
  call void @llvm.lifetime.start.p0(i64 8, ptr %12) #6
  call void @llvm.lifetime.start.p0(i64 4, ptr %13) #6
  call void @llvm.lifetime.start.p0(i64 4, ptr %14) #6
  store i32 0, ptr %14, align 4
  %16 = load ptr, ptr %6, align 8
  %17 = load ptr, ptr %7, align 8
  %18 = load ptr, ptr %8, align 8
  %19 = load i32, ptr @proto_lcp_option_self_desc_pad, align 4
  %20 = load i32, ptr @ett_lcp_self_desc_pad_opt, align 4
  %21 = call zeroext i1 @dissect_lcp_fixed_opt(ptr noundef %16, ptr noundef %17, ptr noundef %18, i32 noundef %19, i32 noundef %20, i32 noundef 3, ptr noundef %10, ptr noundef %11)
  br i1 %21, label %25, label %22

22:                                               ; preds = %4
  %23 = load ptr, ptr %6, align 8
  %24 = call i32 @tvb_captured_length(ptr noundef %23)
  store i32 %24, ptr %5, align 4
  store i32 1, ptr %15, align 4
  br label %45

25:                                               ; preds = %4
  %26 = load ptr, ptr %10, align 8
  %27 = load i32, ptr @hf_lcp_opt_maximum, align 4
  %28 = load ptr, ptr %6, align 8
  %29 = load i32, ptr %14, align 4
  %30 = add i32 %29, 2
  %31 = call ptr @proto_tree_add_item_ret_uint(ptr noundef %26, i32 noundef %27, ptr noundef %28, i32 noundef %30, i32 noundef 1, i32 noundef 0, ptr noundef %13)
  store ptr %31, ptr %12, align 8
  %32 = load ptr, ptr %11, align 8
  %33 = load i32, ptr %13, align 4
  %34 = load i32, ptr %13, align 4
  %35 = icmp eq i32 %34, 1
  %36 = select i1 %35, ptr @.str.1006, ptr @.str.1007
  call void (ptr, ptr, ...) @proto_item_append_text(ptr noundef %32, ptr noundef @.str.1328, i32 noundef %33, ptr noundef %36)
  %37 = load i32, ptr %13, align 4
  %38 = icmp eq i32 %37, 0
  br i1 %38, label %39, label %42

39:                                               ; preds = %25
  %40 = load ptr, ptr %12, align 8
  call void (ptr, ptr, ...) @proto_item_append_text(ptr noundef %40, ptr noundef @.str.1329)
  %41 = load ptr, ptr %11, align 8
  call void (ptr, ptr, ...) @proto_item_append_text(ptr noundef %41, ptr noundef @.str.1329)
  br label %42

42:                                               ; preds = %39, %25
  %43 = load ptr, ptr %6, align 8
  %44 = call i32 @tvb_captured_length(ptr noundef %43)
  store i32 %44, ptr %5, align 4
  store i32 1, ptr %15, align 4
  br label %45

45:                                               ; preds = %42, %22
  call void @llvm.lifetime.end.p0(i64 4, ptr %14) #6
  call void @llvm.lifetime.end.p0(i64 4, ptr %13) #6
  call void @llvm.lifetime.end.p0(i64 8, ptr %12) #6
  call void @llvm.lifetime.end.p0(i64 8, ptr %11) #6
  call void @llvm.lifetime.end.p0(i64 8, ptr %10) #6
  %46 = load i32, ptr %5, align 4
  ret i32 %46
}