; Function Attrs: null_pointer_is_valid sspstrong uwtable
define internal i32 @dissect_lcp_self_describing_pad_opt(ptr noundef %0, ptr noundef %1, ptr noundef %2, ptr readnone captures(none) %3) #1 {
  %5 = alloca ptr, align 8
  %6 = alloca ptr, align 8
  %7 = alloca i32, align 4
  call void @llvm.lifetime.start.p0(i64 8, ptr nonnull %5) #8
  call void @llvm.lifetime.start.p0(i64 8, ptr nonnull %6) #8
  call void @llvm.lifetime.start.p0(i64 4, ptr nonnull %7) #8
  %8 = load i32, ptr @proto_lcp_option_self_desc_pad, align 4
  %9 = load i32, ptr @ett_lcp_self_desc_pad_opt, align 4
  %10 = call fastcc zeroext i1 @dissect_lcp_fixed_opt(ptr noundef %0, ptr noundef %1, ptr noundef %2, i32 noundef %8, i32 noundef %9, i32 noundef 3, ptr noundef nonnull %5, ptr noundef nonnull %6)
  br i1 %10, label %13, label %11

11:                                               ; preds = %4
  %12 = tail call i32 @tvb_captured_length(ptr noundef %0)
  br label %26

13:                                               ; preds = %4
  %14 = load ptr, ptr %5, align 8
  %15 = load i32, ptr @hf_lcp_opt_maximum, align 4
  %16 = call ptr @proto_tree_add_item_ret_uint(ptr noundef %14, i32 noundef %15, ptr noundef %0, i32 noundef 2, i32 noundef 1, i32 noundef 0, ptr noundef nonnull %7)
  %17 = load ptr, ptr %6, align 8
  %18 = load i32, ptr %7, align 4
  %19 = icmp eq i32 %18, 1
  %20 = select i1 %19, ptr @.str.1006, ptr @.str.1007
  call void (ptr, ptr, ...) @proto_item_append_text(ptr noundef %17, ptr noundef nonnull @.str.1328, i32 noundef %18, ptr noundef nonnull %20)
  %21 = load i32, ptr %7, align 4
  %22 = icmp eq i32 %21, 0
  br i1 %22, label %23, label %24

23:                                               ; preds = %13
  call void (ptr, ptr, ...) @proto_item_append_text(ptr noundef %16, ptr noundef nonnull @.str.1329)
  call void (ptr, ptr, ...) @proto_item_append_text(ptr noundef %17, ptr noundef nonnull @.str.1329)
  br label %24

24:                                               ; preds = %23, %13
  %25 = call i32 @tvb_captured_length(ptr noundef %0)
  br label %26

26:                                               ; preds = %24, %11
  %.0 = phi i32 [ %25, %24 ], [ %12, %11 ]
  call void @llvm.lifetime.end.p0(i64 4, ptr nonnull %7) #8
  call void @llvm.lifetime.end.p0(i64 8, ptr nonnull %6) #8
  call void @llvm.lifetime.end.p0(i64 8, ptr nonnull %5) #8
  ret i32 %.0
}